Certificate:
    Data:
        Version: 3 (0x2)
        Serial Number: 1 (0x1)
        Signature Algorithm: sha256WithRSAEncryption
        Issuer: CN=Test CA
        Validity
            Not Before: Jan  1 00:00:00 2020 GMT
            Not After : Jan  2 00:00:00 2020 GMT
        Subject: CN=backend-tls-expired
        Subject Public Key Info:
            Public Key Algorithm: rsaEncryption
                Public-Key: (2048 bit)
                Modulus:
                    00:d6:7b:a7:54:31:af:dc:46:2c:a2:0d:8c:0d:60:
                    2d:57:0a:50:51:81:3d:59:65:25:57:fc:4f:e8:f3:
                    36:c6:83:ad:14:d3:7e:62:92:cd:98:54:70:1c:93:
                    cd:eb:48:5a:3e:cf:75:6c:0d:dc:fc:8a:b2:05:2f:
                    6c:3c:77:11:8c:66:3c:88:91:3b:2d:9d:f5:2c:7d:
                    d3:f6:96:01:28:4d:da:1a:fa:0b:69:6e:6d:03:fe:
                    82:a0:c8:c0:aa:e4:af:57:cf:d1:97:de:48:a8:df:
                    6a:c9:d3:d5:9c:39:86:2e:0d:0e:79:01:57:4f:18:
                    9c:87:af:87:51:05:5f:fa:53:31:fb:9e:f8:e5:d8:
                    16:13:a2:af:8f:27:73:f0:20:0d:30:d9:44:76:fc:
                    83:ec:d6:d4:a2:14:4a:9b:0f:87:8e:50:53:9f:0a:
                    84:fc:55:7d:6a:bb:57:35:f5:66:f6:be:78:bd:d5:
                    f2:28:8c:4c:2e:0f:98:65:da:65:de:93:50:ed:bb:
                    5e:11:00:35:eb:4e:19:28:57:e3:d9:b0:3a:72:c0:
                    6d:6b:a1:7e:ad:98:97:5d:34:af:3d:d9:ac:55:16:
                    5e:b2:18:20:9e:00:86:b0:6c:d8:43:16:8e:db:3a:
                    f4:f7:fb:bb:ba:e5:40:51:43:2a:d6:43:e5:4a:05:
                    d8:9d
                Exponent: 65537 (0x10001)
        X509v3 extensions:
            X509v3 Subject Alternative Name: 
                DNS:backend-tls-expired
            X509v3 Subject Key Identifier: 
                FF:43:13:C3:8D:85:99:07:CC:5F:96:09:52:9E:AF:3C:FD:CE:BD:C5
            X509v3 Authority Key Identifier: 
                4B:EB:19:73:C4:36:E5:D8:5F:C7:94:2A:61:9D:AC:C7:89:11:FE:BD
    Signature Algorithm: sha256WithRSAEncryption
    Signature Value:
        30:e9:89:2e:4d:e9:4f:d4:95:c8:fa:15:b0:e5:f8:5c:79:ac:
        81:88:45:fc:d6:93:cb:1c:61:48:7e:8d:c8:5f:68:3d:63:88:
        c3:7c:c2:39:48:d9:0c:5a:42:91:9d:f9:a5:c1:92:c1:a6:11:
        9e:84:c3:da:ac:71:91:d0:77:89:98:2e:37:eb:2e:e8:e0:e8:
        dd:a4:ce:04:00:de:dd:80:8f:ac:a0:c4:5b:c8:c8:11:23:eb:
        29:28:bb:df:8e:09:2a:9d:72:a7:13:98:a8:3b:a9:b4:9b:bc:
        c2:f2:23:1a:37:df:3f:70:4d:3c:b8:e9:fa:1e:07:3f:6b:58:
        4a:00:8e:da:d5:5b:dd:2d:2c:ae:24:8b:c7:cc:c3:cb:16:98:
        a4:56:a1:8f:47:cf:3c:d5:71:b3:c5:07:53:bb:fa:1f:be:29:
        f9:53:98:3c:71:82:d7:09:7a:34:5c:91:7d:e9:bf:62:89:07:
        c0:86:f1:02:bb:c0:d0:c4:ff:a3:a7:9d:54:68:4f:e8:9b:bd:
        8f:8e:07:85:54:07:a3:37:d0:06:2e:79:ae:a1:ea:20:4e:7c:
        61:d5:31:d1:37:b4:1d:97:d7:e4:e5:03:e7:63:a4:c5:dd:33:
        f5:e8:f2:b9:71:5f:3a:97:10:4a:35:3f:85:d2:11:38:ae:4a:
        04:25:af:10
-----BEGIN CERTIFICATE-----
MIIDDTCCAfWgAwIBAgIBATANBgkqhkiG9w0BAQsFADASMRAwDgYDVQQDDAdUZXN0
IENBMB4XDTIwMDEwMTAwMDAwMFoXDTIwMDEwMjAwMDAwMFowHjEcMBoGA1UEAwwT
YmFja2VuZC10bHMtZXhwaXJlZDCCASIwDQYJKoZIhvcNAQEBBQADggEPADCCAQoC
ggEBANZ7p1Qxr9xGLKINjA1gLVcKUFGBPVllJVf8T+jzNsaDrRTTfmKSzZhUcByT
zetIWj7PdWwN3PyKsgUvbDx3EYxmPIiROy2d9Sx90/aWAShN2hr6C2lubQP+gqDI
wKrkr1fP0ZfeSKjfasnT1Zw5hi4NDnkBV08YnIevh1EFX/pTMfue+OXYFhOir48n
c/AgDTDZRHb8g+zW1KIUSpsPh45QU58KhPxVfWq7VzX1Zva+eL3V8iiMTC4PmGXa
Zd6TUO27XhEANetOGShX49mwOnLAbWuhfq2Yl100rz3ZrFUWXrIYIJ4AhrBs2EMW
jts69Pf7u7rlQFFDKtZD5UoF2J0CAwEAAaNiMGAwHgYDVR0RBBcwFYITYmFja2Vu
ZC10bHMtZXhwaXJlZDAdBgNVHQ4EFgQU/0MTw42FmQfMX5YJUp6vPP3OvcUwHwYD
VR0jBBgwFoAUS+sZc8Q25dhfx5QqYZ2sx4kR/r0wDQYJKoZIhvcNAQELBQADggEB
ADDpiS5N6U/Ulcj6FbDl+Fx5rIGIRfzWk8scYUh+jchfaD1jiMN8wjlI2QxaQpGd
+aXBksGmEZ6Ew9qscZHQd4mYLjfrLujg6N2kzgQA3t2Aj6ygxFvIyBEj6ykou9+O
CSqdcqcTmKg7qbSbvMLyIxo33z9wTTy46foeBz9rWEoAjtrVW90tLK4ki8fMw8sW
mKRWoY9HzzzVcbPFB1O7+h++KflTmDxxgtcJejRckX3pv2KJB8CG8QK7wNDE/6On
nVRoT+ibvY+OB4VUB6M30AYuea6h6iBOfGHVMdE3tB2X1+TlA+djpMXdM/Xo8rlx
XzqXEEo1P4XSETiuSgQlrxA=
-----END CERTIFICATE-----
